target datalayout = "e-m:e-p270:32:32-p271:32:32-p272:64:64-i64:64-i128:128-f80:128-n8:16:32:64-S128"
target triple = "x86_64-pc-linux-gnu"

@.str.14 = private unnamed_addr constant [2 x i8] c"\0A\00", align 1
@.str.190 = private unnamed_addr constant [33 x i8] c"    clean [options] [selection]\0A\00", align 1
@.str.191 = private unnamed_addr constant [53 x i8] c"This is identical to 'opt_clean', but less verbose.\0A\00", align 1
@.str.192 = private unnamed_addr constant [81 x i8] c"When commands are separated using the ';;' token, this command will be executed\0A\00", align 1
@.str.193 = private unnamed_addr constant [23 x i8] c"between the commands.\0A\00", align 1
@.str.194 = private unnamed_addr constant [82 x i8] c"When commands are separated using the ';;;' token, this command will be executed\0A\00", align 1
@.str.195 = private unnamed_addr constant [38 x i8] c"in -purge mode between the commands.\0A\00", align 1

; Function Attrs: mustprogress uwtable
define internal void @_ZN12_GLOBAL__N_19CleanPass4helpEv(ptr noundef nonnull align 8 dereferenceable(104) %0) unnamed_addr #4 align 2 {
  %2 = alloca ptr, align 8
  store ptr %0, ptr %2, align 8
  call void (ptr, ...) @_ZN5Yosys3logEPKcz(ptr noundef @.str.14)
  call void (ptr, ...) @_ZN5Yosys3logEPKcz(ptr noundef @.str.190)
  call void (ptr, ...) @_ZN5Yosys3logEPKcz(ptr noundef @.str.14)
  call void (ptr, ...) @_ZN5Yosys3logEPKcz(ptr noundef @.str.191)
  call void (ptr, ...) @_ZN5Yosys3logEPKcz(ptr noundef @.str.14)
  call void (ptr, ...) @_ZN5Yosys3logEPKcz(ptr noundef @.str.192)
  call void (ptr, ...) @_ZN5Yosys3logEPKcz(ptr noundef @.str.193)
  call void (ptr, ...) @_ZN5Yosys3logEPKcz(ptr noundef @.str.14)
  call void (ptr, ...) @_ZN5Yosys3logEPKcz(ptr noundef @.str.194)
  call void (ptr, ...) @_ZN5Yosys3logEPKcz(ptr noundef @.str.195)
  call void (ptr, ...) @_ZN5Yosys3logEPKcz(ptr noundef @.str.14)
  ret void
}